target datalayout = "e-m:e-p270:32:32-p271:32:32-p272:64:64-i64:64-f80:128-n8:16:32:64-S128"
target triple = "x86_64-pc-linux-gnu"

@.str = private unnamed_addr constant [3 x i8] c"%s\00", align 1
@.str.1 = private unnamed_addr constant [3 x i8] c"NO\00", align 1
@.str.2 = private unnamed_addr constant [4 x i8] c"YES\00", align 1

; Function Attrs: noinline nounwind uwtable
define dso_local i32 @main(i32 %0, i8** %1) #0 {
  %3 = alloca i32, align 4
  %4 = alloca i32, align 4
  %5 = alloca i8**, align 8
  %6 = alloca [1000 x i8], align 16
  %7 = alloca [1000 x i8], align 16
  %8 = alloca i32, align 4
  %9 = alloca i32, align 4
  %10 = alloca i32, align 4
  %11 = alloca i32, align 4
  %12 = alloca i32, align 4
  %13 = alloca i32, align 4
  %14 = alloca [1000 x i32], align 16
  %15 = alloca [1000 x i32], align 16
  store i32 0, i32* %3, align 4
  store i32 %0, i32* %4, align 4
  store i8** %1, i8*** %5, align 8
  store i32 0, i32* %13, align 4
  %16 = getelementptr inbounds [1000 x i8], [1000 x i8]* %6, i64 0, i64 0
  %17 = call i32 (i8*, ...) @__isoc99_scanf(i8* getelementptr inbounds ([3 x i8], [3 x i8]* @.str, i64 0, i64 0), i8* %16)
  %18 = getelementptr inbounds [1000 x i8], [1000 x i8]* %7, i64 0, i64 0
  %19 = call i32 (i8*, ...) @__isoc99_scanf(i8* getelementptr inbounds ([3 x i8], [3 x i8]* @.str, i64 0, i64 0), i8* %18)
  %20 = getelementptr inbounds [1000 x i8], [1000 x i8]* %6, i64 0, i64 0
  %21 = call i64 @strlen(i8* %20) #3
  %22 = trunc i64 %21 to i32
  store i32 %22, i32* %8, align 4
  %23 = getelementptr inbounds [1000 x i8], [1000 x i8]* %7, i64 0, i64 0
  %24 = call i64 @strlen(i8* %23) #3
  %25 = trunc i64 %24 to i32
  store i32 %25, i32* %9, align 4
  store i32 0, i32* %10, align 4
  br label %26

26:                                               ; preds = %47, %2
  %27 = load i32, i32* %10, align 4
  %28 = load i32, i32* %8, align 4
  %29 = icmp slt i32 %27, %28
  br i1 %29, label %30, label %50

30:                                               ; preds = %26
  %31 = load i32, i32* %10, align 4
  %32 = sext i32 %31 to i64
  %33 = getelementptr inbounds [1000 x i8], [1000 x i8]* %6, i64 0, i64 %32
  %34 = load i8, i8* %33, align 1
  %35 = sext i8 %34 to i32
  %36 = load i32, i32* %10, align 4
  %37 = sext i32 %36 to i64
  %38 = getelementptr inbounds [1000 x i32], [1000 x i32]* %14, i64 0, i64 %37
  store i32 %35, i32* %38, align 4
  %39 = load i32, i32* %10, align 4
  %40 = sext i32 %39 to i64
  %41 = getelementptr inbounds [1000 x i8], [1000 x i8]* %7, i64 0, i64 %40
  %42 = load i8, i8* %41, align 1
  %43 = sext i8 %42 to i32
  %44 = load i32, i32* %10, align 4
  %45 = sext i32 %44 to i64
  %46 = getelementptr inbounds [1000 x i32], [1000 x i32]* %15, i64 0, i64 %45
  store i32 %43, i32* %46, align 4
  br label %47

47:                                               ; preds = %30
  %48 = load i32, i32* %10, align 4
  %49 = add nsw i32 %48, 1
  store i32 %49, i32* %10, align 4
  br label %26

50:                                               ; preds = %26
  store i32 0, i32* %10, align 4
  br label %51

51:                                               ; preds = %97, %50
  %52 = load i32, i32* %10, align 4
  %53 = load i32, i32* %8, align 4
  %54 = icmp slt i32 %52, %53
  br i1 %54, label %55, label %100

55:                                               ; preds = %51
  store i32 0, i32* %11, align 4
  br label %56

56:                                               ; preds = %93, %55
  %57 = load i32, i32* %11, align 4
  %58 = load i32, i32* %8, align 4
  %59 = sub nsw i32 %58, 1
  %60 = load i32, i32* %10, align 4
  %61 = sub nsw i32 %59, %60
  %62 = icmp slt i32 %57, %61
  br i1 %62, label %63, label %96

63:                                               ; preds = %56
  %64 = load i32, i32* %11, align 4
  %65 = sext i32 %64 to i64
  %66 = getelementptr inbounds [1000 x i32], [1000 x i32]* %14, i64 0, i64 %65
  %67 = load i32, i32* %66, align 4
  %68 = load i32, i32* %11, align 4
  %69 = add nsw i32 %68, 1
  %70 = sext i32 %69 to i64
  %71 = getelementptr inbounds [1000 x i32], [1000 x i32]* %14, i64 0, i64 %70
  %72 = load i32, i32* %71, align 4
  %73 = icmp slt i32 %67, %72
  br i1 %73, label %74, label %92

74:                                               ; preds = %63
  %75 = load i32, i32* %11, align 4
  %76 = sext i32 %75 to i64
  %77 = getelementptr inbounds [1000 x i32], [1000 x i32]* %14, i64 0, i64 %76
  %78 = load i32, i32* %77, align 4
  store i32 %78, i32* %12, align 4
  %79 = load i32, i32* %11, align 4
  %80 = add nsw i32 %79, 1
  %81 = sext i32 %80 to i64
  %82 = getelementptr inbounds [1000 x i32], [1000 x i32]* %14, i64 0, i64 %81
  %83 = load i32, i32* %82, align 4
  %84 = load i32, i32* %11, align 4
  %85 = sext i32 %84 to i64
  %86 = getelementptr inbounds [1000 x i32], [1000 x i32]* %14, i64 0, i64 %85
  store i32 %83, i32* %86, align 4
  %87 = load i32, i32* %12, align 4
  %88 = load i32, i32* %11, align 4
  %89 = add nsw i32 %88, 1
  %90 = sext i32 %89 to i64
  %91 = getelementptr inbounds [1000 x i32], [1000 x i32]* %14, i64 0, i64 %90
  store i32 %87, i32* %91, align 4
  br label %92

92:                                               ; preds = %74, %63
  br label %93

93:                                               ; preds = %92
  %94 = load i32, i32* %11, align 4
  %95 = add nsw i32 %94, 1
  store i32 %95, i32* %11, align 4
  br label %56

96:                                               ; preds = %56
  br label %97

97:                                               ; preds = %96
  %98 = load i32, i32* %10, align 4
  %99 = add nsw i32 %98, 1
  store i32 %99, i32* %10, align 4
  br label %51

100:                                              ; preds = %51
  store i32 0, i32* %10, align 4
  br label %101

101:                                              ; preds = %147, %100
  %102 = load i32, i32* %10, align 4
  %103 = load i32, i32* %8, align 4
  %104 = icmp slt i32 %102, %103
  br i1 %104, label %105, label %150

105:                                              ; preds = %101
  store i32 0, i32* %11, align 4
  br label %106

106:                                              ; preds = %143, %105
  %107 = load i32, i32* %11, align 4
  %108 = load i32, i32* %8, align 4
  %109 = sub nsw i32 %108, 1
  %110 = load i32, i32* %10, align 4
  %111 = sub nsw i32 %109, %110
  %112 = icmp slt i32 %107, %111
  br i1 %112, label %113, label %146

113:                                              ; preds = %106
  %114 = load i32, i32* %11, align 4
  %115 = sext i32 %114 to i64
  %116 = getelementptr inbounds [1000 x i32], [1000 x i32]* %15, i64 0, i64 %115
  %117 = load i32, i32* %116, align 4
  %118 = load i32, i32* %11, align 4
  %119 = add nsw i32 %118, 1
  %120 = sext i32 %119 to i64
  %121 = getelementptr inbounds [1000 x i32], [1000 x i32]* %15, i64 0, i64 %120
  %122 = load i32, i32* %121, align 4
  %123 = icmp slt i32 %117, %122
  br i1 %123, label %124, label %142

124:                                              ; preds = %113
  %125 = load i32, i32* %11, align 4
  %126 = sext i32 %125 to i64
  %127 = getelementptr inbounds [1000 x i32], [1000 x i32]* %15, i64 0, i64 %126
  %128 = load i32, i32* %127, align 4
  store i32 %128, i32* %12, align 4
  %129 = load i32, i32* %11, align 4
  %130 = add nsw i32 %129, 1
  %131 = sext i32 %130 to i64
  %132 = getelementptr inbounds [1000 x i32], [1000 x i32]* %15, i64 0, i64 %131
  %133 = load i32, i32* %132, align 4
  %134 = load i32, i32* %11, align 4
  %135 = sext i32 %134 to i64
  %136 = getelementptr inbounds [1000 x i32], [1000 x i32]* %15, i64 0, i64 %135
  store i32 %133, i32* %136, align 4
  %137 = load i32, i32* %12, align 4
  %138 = load i32, i32* %11, align 4
  %139 = add nsw i32 %138, 1
  %140 = sext i32 %139 to i64
  %141 = getelementptr inbounds [1000 x i32], [1000 x i32]* %15, i64 0, i64 %140
  store i32 %137, i32* %141, align 4
  br label %142

142:                                              ; preds = %124, %113
  br label %143

143:                                              ; preds = %142
  %144 = load i32, i32* %11, align 4
  %145 = add nsw i32 %144, 1
  store i32 %145, i32* %11, align 4
  br label %106

146:                                              ; preds = %106
  br label %147

147:                                              ; preds = %146
  %148 = load i32, i32* %10, align 4
  %149 = add nsw i32 %148, 1
  store i32 %149, i32* %10, align 4
  br label %101

150:                                              ; preds = %101
  store i32 0, i32* %10, align 4
  br label %151

151:                                              ; preds = %175, %150
  %152 = load i32, i32* %10, align 4
  %153 = load i32, i32* %8, align 4
  %154 = icmp slt i32 %152, %153
  br i1 %154, label %155, label %178

155:                                              ; preds = %151
  %156 = load i32, i32* %8, align 4
  %157 = load i32, i32* %9, align 4
  %158 = icmp ne i32 %156, %157
  br i1 %158, label %159, label %161

159:                                              ; preds = %155
  %160 = call i32 (i8*, ...) @printf(i8* getelementptr inbounds ([3 x i8], [3 x i8]* @.str.1, i64 0, i64 0))
  br label %178

161:                                              ; preds = %155
  %162 = load i32, i32* %10, align 4
  %163 = sext i32 %162 to i64
  %164 = getelementptr inbounds [1000 x i32], [1000 x i32]* %14, i64 0, i64 %163
  %165 = load i32, i32* %164, align 4
  %166 = load i32, i32* %10, align 4
  %167 = sext i32 %166 to i64
  %168 = getelementptr inbounds [1000 x i32], [1000 x i32]* %15, i64 0, i64 %167
  %169 = load i32, i32* %168, align 4
  %170 = icmp eq i32 %165, %169
  br i1 %170, label %171, label %174

171:                                              ; preds = %161
  %172 = load i32, i32* %13, align 4
  %173 = add nsw i32 %172, 1
  store i32 %173, i32* %13, align 4
  br label %174

174:                                              ; preds = %171, %161
  br label %175

175:                                              ; preds = %174
  %176 = load i32, i32* %10, align 4
  %177 = add nsw i32 %176, 1
  store i32 %177, i32* %10, align 4
  br label %151

178:                                              ; preds = %159, %151
  %179 = load i32, i32* %13, align 4
  %180 = load i32, i32* %8, align 4
  %181 = icmp eq i32 %179, %180
  br i1 %181, label %182, label %184

182:                                              ; preds = %178
  %183 = call i32 (i8*, ...) @printf(i8* getelementptr inbounds ([4 x i8], [4 x i8]* @.str.2, i64 0, i64 0))
  br label %184

184:                                              ; preds = %182, %178
  %185 = load i32, i32* %13, align 4
  %186 = load i32, i32* %8, align 4
  %187 = icmp ne i32 %185, %186
  br i1 %187, label %188, label %193

188:                                              ; preds = %184
  %189 = load i32, i32* %13, align 4
  %190 = icmp ne i32 %189, 0
  br i1 %190, label %191, label %193

191:                                              ; preds = %188
  %192 = call i32 (i8*, ...) @printf(i8* getelementptr inbounds ([3 x i8], [3 x i8]* @.str.1, i64 0, i64 0))
  br label %193

193:                                              ; preds = %191, %188, %184
  ret i32 0
}